Certificate:
    Data:
        Version: 3 (0x2)
        Serial Number:
            fd:79:91:5b:7a:da:6f:1a:e2:9e:76:c6:66:c2:70:d0:a2:4b:1f:2a
    Signature Algorithm: sha512WithRSAEncryption
        Issuer: CN=CZERTAINLY Dummy Root CA
        Validity
            Not Before: Aug  4 08:13:31 2022 GMT
            Not After : Jul 30 08:13:31 2042 GMT
        Subject: CN=CZERTAINLY Administrator
        Subject Public Key Info:
            Public Key Algorithm: rsaEncryption
                Public-Key: (2048 bit)
                Modulus:
                    00:bf:cf:5a:82:4d:da:27:83:66:4a:75:26:08:2b:
                    5e:38:43:9b:fc:6b:a9:7e:9a:70:09:b2:ab:30:50:
                    ba:30:94:ad:b8:c5:17:c9:75:a9:db:48:d1:f6:72:
                    16:b6:41:2d:e5:47:0b:0a:90:53:3d:00:7e:3c:e3:
                    ec:50:4c:34:fd:a5:8d:52:eb:41:b3:1f:ca:32:46:
                    d7:43:6f:b8:f3:9a:f5:d3:ff:56:89:60:17:80:91:
                    46:0d:04:6e:0e:42:09:dd:2c:df:26:51:fe:02:1c:
                    e9:c9:7d:c7:44:6e:93:cb:91:0a:93:38:8d:9e:d8:
                    fb:fe:e3:85:fe:3e:73:c9:81:96:9d:9a:46:50:09:
                    b5:5d:c9:39:84:25:bb:1d:7b:22:92:5d:26:b9:e0:
                    5f:f9:4a:a1:97:29:e3:35:3d:91:0c:2e:9d:5c:73:
                    e4:60:56:85:71:aa:30:47:15:e9:be:e5:18:5e:68:
                    71:29:67:ad:1d:dc:50:a6:5b:74:66:d7:71:f2:bb:
                    e7:e5:b8:fc:b0:7a:bf:ac:bd:6d:1e:34:47:e2:14:
                    77:f9:8e:b8:1c:90:be:a5:b2:4c:29:39:77:66:16:
                    06:68:3f:75:d3:d5:17:29:db:e5:ad:be:c6:38:49:
                    c4:12:3e:db:c8:86:5e:ae:a2:ae:84:2b:3e:8b:9a:
                    72:ff
                Exponent: 65537 (0x10001)
        X509v3 extensions:
            X509v3 Basic Constraints: critical
                CA:FALSE
            X509v3 Key Usage: critical
                Digital Signature, Non Repudiation, Key Encipherment
            X509v3 Extended Key Usage: 
                TLS Web Client Authentication
            X509v3 Subject Key Identifier: 
                AD:43:B3:DA:FD:04:BC:14:87:C9:E9:86:5C:F9:ED:EC:76:A0:84:18
            X509v3 Authority Key Identifier: 
                keyid:D3:F0:4D:56:3A:E6:A0:3F:17:5B:F3:55:5D:EA:31:4C:89:03:E7:D6

            X509v3 Certificate Policies: 
                Policy: X509v3 Any Policy
                  User Notice:
                    Explicit Text: UTF8:This is a dummy administrator certificate for testing purposes

    Signature Algorithm: sha512WithRSAEncryption
         59:89:69:10:8f:12:08:e9:e1:29:8a:5c:a7:79:fe:06:d6:80:
         a1:4a:dc:c0:87:24:a7:33:cf:c4:d7:fe:f4:b4:8a:84:fa:78:
         34:4b:3e:10:6b:1f:7e:5c:f7:dc:87:84:a2:37:24:fb:1f:f0:
         06:a8:20:25:da:7b:5a:b5:2c:1f:3f:f4:b0:0c:02:92:b5:63:
         6e:1d:cb:c7:be:66:b0:0a:95:a8:55:1a:5f:48:18:6e:ab:2d:
         99:b9:c7:c6:a8:1c:9a:c7:95:91:69:84:1c:43:a6:77:3d:3e:
         fc:1d:17:ac:66:a0:cd:03:56:f0:41:96:dc:f1:2f:e3:23:82:
         7a:a7:60:46:df:4d:ca:1f:86:52:d5:64:6a:fc:be:0a:46:11:
         68:81:07:0c:68:ed:c4:94:cc:6a:45:ce:68:45:34:b4:d9:83:
         a0:c0:43:43:32:ec:a9:ce:f9:01:81:1e:aa:52:af:42:ce:af:
         64:80:9f:f9:19:6d:0d:a0:e0:ae:24:9e:94:4d:38:3e:d8:e7:
         22:be:9a:2a:65:a2:a4:53:76:5a:ef:19:82:2d:ea:b7:b4:92:
         88:cc:24:d0:e2:2f:1b:83:46:90:e2:9c:91:fe:64:45:69:40:
         e9:a2:ed:91:8d:80:04:73:9b:92:72:25:26:17:e9:53:fb:0d:
         37:fe:66:6b:47:3e:ad:25:ca:db:e3:f2:0d:2b:71:00:b3:33:
         33:9e:06:55:f1:a9:5e:67:51:dd:f9:04:43:c9:92:df:90:54:
         da:5f:06:a7:49:80:fd:78:b9:e5:ea:96:55:78:31:10:35:e9:
         87:8f:3b:3b:6d:07:8c:68:7e:c4:77:08:e3:46:4e:6c:12:0a:
         bd:f0:f4:90:28:b5:b1:07:08:36:92:ba:08:69:b4:25:bd:68:
         8d:4f:b1:17:08:2a:d8:88:5d:24:fa:c2:ee:ab:84:5b:7c:04:
         1c:24:50:28:66:93:6d:29:ba:09:f3:1d:7f:76:0e:2a:0a:48:
         52:b5:f9:0d:ad:b0:24:dd:38:45:33:8b:c5:4b:e9:42:cb:3f:
         ae:ea:78:f5:4a:b6:a4:c1:81:3e:d0:2f:b5:3c:d7:c9:32:6b:
         c3:6d:9b:80:18:c9:57:e8:ed:eb:46:41:d0:f5:6a:45:b6:8f:
         6b:9d:a1:50:c9:7b:7b:00:86:a5:53:b6:07:20:1c:c6:84:35:
         f8:49:db:db:cf:d2:c0:39:d6:de:b8:2c:68:21:ce:07:40:33:
         ab:36:90:03:01:1b:80:07:94:28:30:71:2b:09:b4:1a:a2:c8:
         80:cb:46:b3:b0:9a:1b:9f:3f:2a:a6:6c:32:3f:00:0e:aa:88:
         b5:8d:d7:5c:09:61:8d:be
-----BEGIN CERTIFICATE-----
MIIEtDCCApygAwIBAgIVAP15kVt62m8a4p52xmbCcNCiSx8qMA0GCSqGSIb3DQEB
DQUAMCMxITAfBgNVBAMMGENaRVJUQUlOTFkgRHVtbXkgUm9vdCBDQTAeFw0yMjA4
MDQwODEzMzFaFw00MjA3MzAwODEzMzFaMCMxITAfBgNVBAMMGENaRVJUQUlOTFkg
QWRtaW5pc3RyYXRvcjCCASIwDQYJKoZIhvcNAQEBBQADggEPADCCAQoCggEBAL/P
WoJN2ieDZkp1JggrXjhDm/xrqX6acAmyqzBQujCUrbjFF8l1qdtI0fZyFrZBLeVH
CwqQUz0Afjzj7FBMNP2ljVLrQbMfyjJG10NvuPOa9dP/VolgF4CRRg0Ebg5CCd0s
3yZR/gIc6cl9x0Ruk8uRCpM4jZ7Y+/7jhf4+c8mBlp2aRlAJtV3JOYQlux17IpJd
JrngX/lKoZcp4zU9kQwunVxz5GBWhXGqMEcV6b7lGF5ocSlnrR3cUKZbdGbXcfK7
5+W4/LB6v6y9bR40R+IUd/mOuByQvqWyTCk5d2YWBmg/ddPVFynb5a2+xjhJxBI+
28iGXq6iroQrPouacv8CAwEAAaOB3jCB2zAMBgNVHRMBAf8EAjAAMA4GA1UdDwEB
/wQEAwIF4DATBgNVHSUEDDAKBggrBgEFBQcDAjAdBgNVHQ4EFgQUrUOz2v0EvBSH
yemGXPnt7HaghBgwHwYDVR0jBBgwFoAU0/BNVjrmoD8XW/NVXeoxTIkD59YwZgYD
VR0gBF8wXTBbBgRVHSAAMFMwUQYIKwYBBQUHAgIwRRpDVVRGODpUaGlzIGlzIGEg
ZHVtbXkgYWRtaW5pc3RyYXRvciBjZXJ0aWZpY2F0ZSBmb3IgdGVzdGluZyBwdXJw
b3NlczANBgkqhkiG9w0BAQ0FAAOCAgEAWYlpEI8SCOnhKYpcp3n+BtaAoUrcwIck
pzPPxNf+9LSKhPp4NEs+EGsfflz33IeEojck+x/wBqggJdp7WrUsHz/0sAwCkrVj
bh3Lx75msAqVqFUaX0gYbqstmbnHxqgcmseVkWmEHEOmdz0+/B0XrGagzQNW8EGW
3PEv4yOCeqdgRt9Nyh+GUtVkavy+CkYRaIEHDGjtxJTMakXOaEU0tNmDoMBDQzLs
qc75AYEeqlKvQs6vZICf+RltDaDgriSelE04PtjnIr6aKmWipFN2Wu8Zgi3qt7SS
iMwk0OIvG4NGkOKckf5kRWlA6aLtkY2ABHObknIlJhfpU/sNN/5ma0c+rSXK2+Py
DStxALMzM54GVfGpXmdR3fkEQ8mS35BU2l8Gp0mA/Xi55eqWVXgxEDXph487O20H
jGh+xHcI40ZObBIKvfD0kCi1sQcINpK6CGm0Jb1ojU+xFwgq2IhdJPrC7quEW3wE
HCRQKGaTbSm6CfMdf3YOKgpIUrX5Da2wJN04RTOLxUvpQss/rup49Uq2pMGBPtAv
tTzXyTJrw22bgBjJV+jt60ZB0PVqRbaPa52hUMl7ewCGpVO2ByAcxoQ1+Enb28/S
wDnW3rgsaCHOB0AzqzaQAwEbgAeUKDBxKwm0GqLIgMtGs7CaG58/KqZsMj8ADqqI
tY3XXAlhjb4=
-----END CERTIFICATE-----
