Certificate:
    Data:
        Version: 3 (0x2)
        Serial Number:
            4a:92:c3:ff:e8:13:5a:13:31:22:53:28:83:60:5d:96:6d:c2:0e:35
        Signature Algorithm: sha512WithRSAEncryption
        Issuer: CN=Dummy Root CA
        Validity
            Not Before: Apr 20 14:42:17 2026 GMT
            Not After : Apr 15 14:42:17 2046 GMT
        Subject: CN=Administrator
        Subject Public Key Info:
            Public Key Algorithm: rsaEncryption
                Public-Key: (2048 bit)
                Modulus:
                    00:b4:d2:2a:46:a2:ca:01:f5:cf:89:d3:13:4e:67:
                    17:82:07:35:42:3b:5e:0e:bd:0d:56:c7:56:a9:63:
                    2e:a6:21:bf:69:ad:b5:be:24:3c:f3:0b:d3:d5:fd:
                    5a:bf:de:30:11:19:ee:e7:d6:70:a4:97:31:96:11:
                    27:c6:cc:10:7e:0d:74:4e:d3:3d:40:f8:14:49:da:
                    30:e1:eb:fc:32:9b:86:ad:07:8e:51:f5:d9:1f:0d:
                    b8:53:16:65:95:98:d3:d5:ad:ce:6a:62:40:b7:24:
                    98:66:7a:e8:49:73:3e:f5:5c:1b:12:2f:b9:7d:ff:
                    7a:9d:ae:e5:c1:fd:97:81:1d:29:09:2e:41:d5:a0:
                    4b:e2:69:c7:a3:28:68:bd:6a:3b:8d:63:43:a8:e3:
                    06:3b:18:33:7e:4b:c4:50:3f:85:fc:e2:42:b1:cc:
                    94:52:c1:c4:fc:f3:7f:e4:1e:ad:9b:f3:7a:70:4b:
                    28:31:7c:b5:1c:cf:41:4b:7c:97:86:35:fd:0d:b4:
                    3f:80:0a:ea:f3:9d:b5:04:2e:b3:43:17:fc:58:18:
                    97:82:9f:1b:2c:99:33:b2:c7:80:6d:cc:0d:11:2c:
                    83:70:e1:ec:2c:f3:e9:8f:5b:47:eb:06:80:a6:c7:
                    b2:a9:42:17:93:ee:15:98:4c:66:5a:ba:65:42:54:
                    23:1b
                Exponent: 65537 (0x10001)
        X509v3 extensions:
            X509v3 Basic Constraints: critical
                CA:FALSE
            X509v3 Key Usage: critical
                Digital Signature, Non Repudiation, Key Encipherment
            X509v3 Extended Key Usage: 
                TLS Web Client Authentication
            X509v3 Subject Key Identifier: 
                A3:FD:CD:2E:61:42:D2:0C:07:85:E1:9B:76:AC:8E:FF:D9:0B:44:29
            X509v3 Authority Key Identifier: 
                AA:C3:55:12:8C:C0:D2:CF:8A:04:56:82:F1:27:7E:0C:9F:11:18:B2
            X509v3 Certificate Policies: 
                Policy: X509v3 Any Policy
                  User Notice:
                    Explicit Text: This is a dummy administrator certificate for testing purposes
    Signature Algorithm: sha512WithRSAEncryption
    Signature Value:
        5f:08:68:d0:3e:56:13:cb:52:77:a3:de:2d:1a:51:36:e8:9c:
        32:f1:bd:f3:ff:1d:f3:36:3c:ed:67:84:17:e7:00:08:92:25:
        28:4f:6e:03:71:9b:19:a7:da:e5:28:c1:ec:af:80:dc:bf:f2:
        5c:04:a9:cd:ad:f6:03:f8:44:82:11:77:19:72:e5:08:05:bb:
        f8:a0:4a:d8:f9:f0:2c:9a:9e:a0:5b:ad:a0:42:70:c5:e8:66:
        42:7f:3f:8a:89:3c:be:be:d0:78:f7:7c:af:6c:a1:5e:a4:d7:
        c8:e6:58:27:56:1e:38:de:20:f7:4d:26:c5:99:06:1f:79:62:
        d8:63:2a:b0:8e:03:71:16:73:df:7c:f6:7a:c3:67:15:ef:1c:
        39:a6:61:77:14:8e:51:33:94:81:85:21:25:d1:4d:c0:a9:bb:
        e7:92:5c:37:03:99:87:8a:ce:2d:e2:3a:1a:a6:d9:2c:83:ec:
        95:13:1b:77:f1:ac:e1:4b:7e:1e:22:41:94:6e:21:8a:b1:f6:
        e0:af:bf:aa:69:aa:97:d4:c4:52:ae:31:39:15:58:7d:b8:2b:
        39:00:b9:87:06:26:79:88:45:f5:8b:73:70:98:ba:2a:b6:1e:
        f5:f8:00:f5:d7:25:20:5f:a2:c6:a7:f9:1c:f3:93:88:93:59:
        a3:92:89:b6:ee:77:18:fb:04:39:95:26:4a:b8:af:13:b3:5c:
        d0:48:3f:22:19:a9:4b:ed:14:8d:9d:10:0b:af:ef:7b:98:30:
        5e:64:96:01:04:63:e2:11:88:fb:51:40:b4:34:ac:3b:a9:c2:
        d0:e5:ba:30:7c:79:c1:65:40:19:6d:75:9d:47:90:09:6b:b5:
        6c:3c:31:fa:93:d0:af:cb:f4:7d:87:49:a2:c9:01:76:40:cb:
        37:fa:66:07:2c:d7:4b:4f:3a:92:91:4a:bd:5d:89:d9:59:b9:
        bb:0b:0a:6b:1f:57:56:da:25:bb:f0:f7:5f:3a:d0:e5:f7:43:
        21:6c:69:15:47:9d:31:a4:73:42:de:1c:1d:05:ed:21:57:d4:
        48:c3:8e:90:b7:06:fc:3d:94:89:ab:c1:05:94:da:d2:2b:42:
        7b:f3:cd:89:c0:6f:02:0e:13:81:c6:0c:d0:18:06:a1:bf:7c:
        1b:d0:1d:7f:5b:72:d1:55:b4:75:0f:d5:32:bc:32:8d:d7:6d:
        6e:c3:4d:b9:94:9f:ab:09:35:09:e5:3f:9f:7a:9c:90:c5:db:
        e4:1f:e2:2b:98:db:e4:87:49:1c:64:84:86:d4:87:f8:1c:04:
        83:58:53:7d:38:c8:ef:35:eb:22:44:51:e0:a4:d6:76:e9:78:
        77:e3:b0:df:36:f3:6b:5d
-----BEGIN CERTIFICATE-----
MIIEmDCCAoCgAwIBAgIUSpLD/+gTWhMxIlMog2Bdlm3CDjUwDQYJKoZIhvcNAQEN
BQAwGDEWMBQGA1UEAwwNRHVtbXkgUm9vdCBDQTAeFw0yNjA0MjAxNDQyMTdaFw00
NjA0MTUxNDQyMTdaMBgxFjAUBgNVBAMMDUFkbWluaXN0cmF0b3IwggEiMA0GCSqG
SIb3DQEBAQUAA4IBDwAwggEKAoIBAQC00ipGosoB9c+J0xNOZxeCBzVCO14OvQ1W
x1apYy6mIb9prbW+JDzzC9PV/Vq/3jARGe7n1nCklzGWESfGzBB+DXRO0z1A+BRJ
2jDh6/wym4atB45R9dkfDbhTFmWVmNPVrc5qYkC3JJhmeuhJcz71XBsSL7l9/3qd
ruXB/ZeBHSkJLkHVoEviacejKGi9ajuNY0Oo4wY7GDN+S8RQP4X84kKxzJRSwcT8
83/kHq2b83pwSygxfLUcz0FLfJeGNf0NtD+ACurznbUELrNDF/xYGJeCnxssmTOy
x4BtzA0RLINw4ews8+mPW0frBoCmx7KpQheT7hWYTGZaumVCVCMbAgMBAAGjgdkw
gdYwDAYDVR0TAQH/BAIwADAOBgNVHQ8BAf8EBAMCBeAwEwYDVR0lBAwwCgYIKwYB
BQUHAwIwHQYDVR0OBBYEFKP9zS5hQtIMB4Xhm3asjv/ZC0QpMB8GA1UdIwQYMBaA
FKrDVRKMwNLPigRWgvEnfgyfERiyMGEGA1UdIARaMFgwVgYEVR0gADBOMEwGCCsG
AQUFBwICMEAMPlRoaXMgaXMgYSBkdW1teSBhZG1pbmlzdHJhdG9yIGNlcnRpZmlj
YXRlIGZvciB0ZXN0aW5nIHB1cnBvc2VzMA0GCSqGSIb3DQEBDQUAA4ICAQBfCGjQ
PlYTy1J3o94tGlE26Jwy8b3z/x3zNjztZ4QX5wAIkiUoT24DcZsZp9rlKMHsr4Dc
v/JcBKnNrfYD+ESCEXcZcuUIBbv4oErY+fAsmp6gW62gQnDF6GZCfz+KiTy+vtB4
93yvbKFepNfI5lgnVh443iD3TSbFmQYfeWLYYyqwjgNxFnPffPZ6w2cV7xw5pmF3
FI5RM5SBhSEl0U3Aqbvnklw3A5mHis4t4joaptksg+yVExt38azhS34eIkGUbiGK
sfbgr7+qaaqX1MRSrjE5FVh9uCs5ALmHBiZ5iEX1i3NwmLoqth71+AD11yUgX6LG
p/kc85OIk1mjkom27ncY+wQ5lSZKuK8Ts1zQSD8iGalL7RSNnRALr+97mDBeZJYB
BGPiEYj7UUC0NKw7qcLQ5bowfHnBZUAZbXWdR5AJa7VsPDH6k9Cvy/R9h0miyQF2
QMs3+mYHLNdLTzqSkUq9XYnZWbm7CwprH1dW2iW78PdfOtDl90MhbGkVR50xpHNC
3hwdBe0hV9RIw46Qtwb8PZSJq8EFlNrSK0J7882JwG8CDhOBxgzQGAahv3wb0B1/
W3LRVbR1D9UyvDKN121uw025lJ+rCTUJ5T+fepyQxdvkH+IrmNvkh0kcZISG1If4
HASDWFN9OMjvNesiRFHgpNZ26Xh347DfNvNrXQ==
-----END CERTIFICATE-----
