Certificate:
    Data:
        Version: 3 (0x2)
        Serial Number:
            4a:92:c3:ff:e8:13:5a:13:31:22:53:28:83:60:5d:96:6d:c2:0e:34
        Signature Algorithm: sha512WithRSAEncryption
        Issuer: CN=Dummy Root CA
        Validity
            Not Before: Apr 20 14:41:03 2026 GMT
            Not After : Apr 14 14:41:03 2051 GMT
        Subject: CN=Dummy Root CA
        Subject Public Key Info:
            Public Key Algorithm: rsaEncryption
                Public-Key: (4096 bit)
                Modulus:
                    00:bb:bc:db:10:7b:fb:b7:af:55:79:93:48:2a:43:
                    98:db:84:c6:6f:ac:b6:b1:d4:c8:c2:2c:c2:20:38:
                    ab:ef:6b:52:b5:ab:30:98:6c:4d:ca:64:53:b5:73:
                    46:f7:71:d1:25:e5:5b:72:a9:21:7d:a5:78:af:6b:
                    85:71:ac:e1:8c:1f:3f:60:b1:f0:ae:20:1f:4b:f0:
                    87:b0:0f:ad:be:79:a0:38:f6:e4:aa:af:01:cf:12:
                    38:09:42:6a:c4:ba:0c:d8:76:a2:94:58:0c:9b:1b:
                    4c:3e:56:f1:09:cc:f2:55:b9:e5:fc:7c:39:14:ca:
                    69:15:e8:f8:a7:38:64:cd:e7:70:00:ce:43:95:a6:
                    32:6c:c5:6f:f6:61:5b:9d:36:37:43:c3:88:a8:d1:
                    33:70:e6:45:2f:83:ae:4a:27:3b:62:40:8b:39:ce:
                    a6:9e:8d:11:a6:1c:34:a3:e8:ad:57:ff:c5:be:a0:
                    bf:68:9e:0c:da:14:cf:57:1a:77:ea:02:41:79:64:
                    d5:42:35:67:e0:80:39:79:10:e4:d1:31:47:76:19:
                    95:04:19:04:24:15:3f:81:92:a1:21:21:18:2c:86:
                    65:74:10:f4:a6:fd:66:28:b4:71:b8:26:58:88:96:
                    4b:e5:23:eb:19:c2:e9:3c:48:30:04:5d:fd:dd:00:
                    6a:a6:a5:e5:e1:5a:7e:58:41:1c:e5:44:7b:e9:09:
                    90:de:18:02:af:0f:ea:8c:d6:aa:09:af:e1:70:03:
                    43:d5:f4:f7:fa:bd:fd:09:f1:76:71:aa:32:b6:37:
                    c6:c3:f2:b2:b8:72:f5:75:64:f4:e8:2e:6f:d3:05:
                    37:c9:d7:52:13:5c:dc:1e:c5:7b:b0:40:cc:77:46:
                    ed:93:9d:56:9a:a3:10:ba:55:20:10:03:40:4e:94:
                    9a:b0:50:2d:4d:47:89:e3:7e:b4:d7:4c:bf:25:61:
                    8a:33:23:67:e8:85:f2:01:b2:2e:27:35:3f:fa:d9:
                    a6:74:8e:cd:17:88:9b:0e:0a:c6:25:f3:51:78:f6:
                    65:d0:e3:89:f4:48:5a:e8:af:2f:d6:86:66:fa:15:
                    3f:48:f3:38:9e:fb:b3:88:ca:f1:8d:b6:17:71:ff:
                    ed:81:6a:86:84:0f:1b:a7:49:28:c2:63:63:cd:dc:
                    39:9a:6b:fd:c9:e1:b7:a7:31:5b:6c:5c:82:a6:41:
                    8f:01:2a:c3:27:25:2a:e5:92:f4:7d:ef:39:58:76:
                    a9:3b:f0:73:86:66:8f:1f:c2:18:b2:6d:c5:3d:b6:
                    16:ef:58:2a:a2:68:7c:29:5f:a2:c9:d3:b1:e4:c4:
                    66:f1:65:3b:dd:0c:ec:8c:bc:a0:b0:82:df:85:6a:
                    7a:b1:d9
                Exponent: 65537 (0x10001)
        X509v3 extensions:
            X509v3 Basic Constraints: critical
                CA:TRUE
            X509v3 Key Usage: critical
                Certificate Sign, CRL Sign
            X509v3 Subject Key Identifier: 
                AA:C3:55:12:8C:C0:D2:CF:8A:04:56:82:F1:27:7E:0C:9F:11:18:B2
            X509v3 Authority Key Identifier: 
                AA:C3:55:12:8C:C0:D2:CF:8A:04:56:82:F1:27:7E:0C:9F:11:18:B2
            X509v3 Certificate Policies: 
                Policy: X509v3 Any Policy
                  User Notice:
                    Explicit Text: This is a dummy Root CA for testing purposes
    Signature Algorithm: sha512WithRSAEncryption
    Signature Value:
        aa:28:b2:be:8a:8f:13:45:82:0b:39:b4:0d:02:13:b0:45:61:
        20:90:ee:cd:4e:fe:07:8a:87:89:62:5e:f3:b8:48:80:96:2f:
        f4:46:06:8b:20:be:00:57:37:ee:a4:3c:7e:53:20:13:5c:10:
        be:4b:c8:85:54:de:1d:f5:0d:4b:a6:8c:d2:50:a0:7d:1a:5c:
        09:d8:87:6d:8b:96:82:51:bf:25:47:6f:8d:84:de:2d:51:60:
        ab:03:cd:b5:3d:96:12:4a:ec:9b:26:b4:ef:5f:90:c0:ac:6c:
        73:1b:12:a8:a7:79:5e:b2:a8:29:8b:60:13:fa:a8:64:99:18:
        62:f1:ea:4e:7d:4f:e1:36:e5:8f:8b:8b:ea:6b:9d:96:e7:8e:
        0e:af:2f:f8:e0:f1:20:2c:c8:3f:55:bd:4b:be:43:99:12:54:
        83:43:47:db:51:8a:d6:fd:39:23:62:8b:63:f4:89:8c:45:f7:
        09:0b:f1:be:9b:c7:cd:1f:cc:3c:7b:8a:5f:6a:3a:aa:b8:3f:
        d2:be:69:16:bb:1c:25:06:da:13:38:23:15:14:18:c5:a6:a6:
        3f:29:18:53:72:61:db:e2:94:c2:88:e5:b3:2a:43:b3:20:8f:
        36:b5:63:05:39:7f:05:ee:7e:58:66:e2:0e:e3:c6:70:f3:83:
        e8:55:41:d4:af:98:c2:68:bb:e8:d0:39:41:7a:a2:78:c9:60:
        d2:2e:d4:ef:10:0c:13:0f:b1:7e:49:c0:31:83:14:08:f8:dc:
        84:e4:cf:27:ba:80:2e:aa:6b:24:d1:be:99:c1:d8:13:2e:b9:
        4d:d4:b1:94:05:36:16:46:86:4d:f7:1d:4f:29:4f:b9:e5:e7:
        6f:9a:22:ec:7b:f5:e3:c2:57:9b:a5:14:c5:ad:75:a8:d3:99:
        7f:d3:72:45:86:5c:84:07:97:fe:d9:98:44:48:9c:0d:99:62:
        e2:0f:03:6a:a4:5d:16:92:09:e4:86:a9:8f:ee:a2:3a:cd:b1:
        a4:14:83:5f:02:46:b9:a2:f4:c6:be:1f:ae:e1:a1:0d:c6:51:
        fc:30:3f:19:7d:bb:a5:47:ca:cc:5f:98:19:71:4a:2d:aa:be:
        11:9e:e6:ee:a9:4c:5d:c8:7e:17:4b:42:07:02:af:2b:e9:27:
        ed:22:1c:88:fe:45:5c:f5:18:8c:ea:c7:ea:ec:19:e2:e7:b6:
        fd:05:61:26:96:91:01:ec:20:51:68:24:3d:9e:86:a4:a1:7a:
        7f:1b:85:d6:b8:68:29:3a:8c:bd:49:01:b7:c5:88:65:0b:b0:
        a9:dc:2a:ed:8e:2c:42:9a:b6:1f:ae:cb:06:3a:3b:f1:e6:3a:
        42:d2:f1:34:d6:52:43:54
-----BEGIN CERTIFICATE-----
MIIFdjCCA16gAwIBAgIUSpLD/+gTWhMxIlMog2Bdlm3CDjQwDQYJKoZIhvcNAQEN
BQAwGDEWMBQGA1UEAwwNRHVtbXkgUm9vdCBDQTAgFw0yNjA0MjAxNDQxMDNaGA8y
MDUxMDQxNDE0NDEwM1owGDEWMBQGA1UEAwwNRHVtbXkgUm9vdCBDQTCCAiIwDQYJ
KoZIhvcNAQEBBQADggIPADCCAgoCggIBALu82xB7+7evVXmTSCpDmNuExm+strHU
yMIswiA4q+9rUrWrMJhsTcpkU7VzRvdx0SXlW3KpIX2leK9rhXGs4YwfP2Cx8K4g
H0vwh7APrb55oDj25KqvAc8SOAlCasS6DNh2opRYDJsbTD5W8QnM8lW55fx8ORTK
aRXo+Kc4ZM3ncADOQ5WmMmzFb/ZhW502N0PDiKjRM3DmRS+DrkonO2JAiznOpp6N
EaYcNKPorVf/xb6gv2ieDNoUz1cad+oCQXlk1UI1Z+CAOXkQ5NExR3YZlQQZBCQV
P4GSoSEhGCyGZXQQ9Kb9Zii0cbgmWIiWS+Uj6xnC6TxIMARd/d0Aaqal5eFaflhB
HOVEe+kJkN4YAq8P6ozWqgmv4XADQ9X09/q9/QnxdnGqMrY3xsPysrhy9XVk9Ogu
b9MFN8nXUhNc3B7Fe7BAzHdG7ZOdVpqjELpVIBADQE6UmrBQLU1HieN+tNdMvyVh
ijMjZ+iF8gGyLic1P/rZpnSOzReImw4KxiXzUXj2ZdDjifRIWuivL9aGZvoVP0jz
OJ77s4jK8Y22F3H/7YFqhoQPG6dJKMJjY83cOZpr/cnht6cxW2xcgqZBjwEqwycl
KuWS9H3vOVh2qTvwc4Zmjx/CGLJtxT22Fu9YKqJofClfosnTseTEZvFlO90M7Iy8
oLCC34VqerHZAgMBAAGjgbUwgbIwDwYDVR0TAQH/BAUwAwEB/zAOBgNVHQ8BAf8E
BAMCAQYwHQYDVR0OBBYEFKrDVRKMwNLPigRWgvEnfgyfERiyMB8GA1UdIwQYMBaA
FKrDVRKMwNLPigRWgvEnfgyfERiyME8GA1UdIARIMEYwRAYEVR0gADA8MDoGCCsG
AQUFBwICMC4MLFRoaXMgaXMgYSBkdW1teSBSb290IENBIGZvciB0ZXN0aW5nIHB1
cnBvc2VzMA0GCSqGSIb3DQEBDQUAA4ICAQCqKLK+io8TRYILObQNAhOwRWEgkO7N
Tv4HioeJYl7zuEiAli/0RgaLIL4AVzfupDx+UyATXBC+S8iFVN4d9Q1LpozSUKB9
GlwJ2Idti5aCUb8lR2+NhN4tUWCrA821PZYSSuybJrTvX5DArGxzGxKop3lesqgp
i2AT+qhkmRhi8epOfU/hNuWPi4vqa52W544Ory/44PEgLMg/Vb1LvkOZElSDQ0fb
UYrW/TkjYotj9ImMRfcJC/G+m8fNH8w8e4pfajqquD/SvmkWuxwlBtoTOCMVFBjF
pqY/KRhTcmHb4pTCiOWzKkOzII82tWMFOX8F7n5YZuIO48Zw84PoVUHUr5jCaLvo
0DlBeqJ4yWDSLtTvEAwTD7F+ScAxgxQI+NyE5M8nuoAuqmsk0b6ZwdgTLrlN1LGU
BTYWRoZN9x1PKU+55edvmiLse/XjwlebpRTFrXWo05l/03JFhlyEB5f+2ZhESJwN
mWLiDwNqpF0WkgnkhqmP7qI6zbGkFINfAka5ovTGvh+u4aENxlH8MD8ZfbulR8rM
X5gZcUotqr4RnubuqUxdyH4XS0IHAq8r6SftIhyI/kVc9RiM6sfq7Bni57b9BWEm
lpEB7CBRaCQ9noakoXp/G4XWuGgpOoy9SQG3xYhlC7Cp3CrtjixCmrYfrssGOjvx
5jpC0vE01lJDVA==
-----END CERTIFICATE-----
