Certificate:
    Data:
        Version: 3 (0x2)
        Serial Number:
            fd:79:91:5b:7a:da:6f:1a:e2:9e:76:c6:66:c2:70:d0:a2:4b:1f:29
    Signature Algorithm: sha512WithRSAEncryption
        Issuer: CN=CZERTAINLY Dummy Root CA
        Validity
            Not Before: Aug  4 07:51:51 2022 GMT
            Not After : Jul 29 07:51:51 2047 GMT
        Subject: CN=CZERTAINLY Dummy Root CA
        Subject Public Key Info:
            Public Key Algorithm: rsaEncryption
                Public-Key: (4096 bit)
                Modulus:
                    00:bf:f4:6d:17:94:66:72:28:7b:82:81:44:40:c2:
                    f3:07:ff:bd:e6:84:83:ac:ee:f1:07:31:45:d0:5d:
                    91:4f:73:d7:d7:0c:90:14:0d:f6:d6:61:ba:a3:d4:
                    cd:12:67:10:40:4c:8f:08:c3:59:f9:a1:a8:41:74:
                    e6:5f:8d:ac:36:6f:23:2f:82:d6:a0:d1:e0:c5:03:
                    a1:a9:e2:ac:f1:4b:e0:7c:f2:2f:39:b0:14:c2:5c:
                    14:4e:a4:7f:de:3c:64:99:bc:07:a1:9d:cd:50:68:
                    fc:26:8b:69:a8:c6:8f:9a:26:d3:f5:aa:dc:8f:ea:
                    62:5a:a0:3b:d3:f6:f8:21:51:e0:10:fb:f9:bb:37:
                    c6:ac:ad:79:17:0e:23:ad:0a:ed:a9:f0:27:3d:8e:
                    4e:d5:51:2d:db:e6:3c:04:ad:90:9c:97:45:39:05:
                    2c:1d:06:62:91:1c:92:0b:e0:90:e0:0d:2e:ca:b0:
                    6b:54:7b:97:ba:45:61:6a:1d:b6:55:b7:4e:8a:97:
                    c3:25:60:bd:3f:83:96:dd:76:a0:1b:ec:2d:d6:ca:
                    b9:31:d8:1f:ab:92:d5:d0:bb:43:a1:83:8b:9a:61:
                    f6:0a:78:3e:24:07:35:7c:f3:97:2a:63:cb:88:ac:
                    8c:ab:a6:d4:f4:26:04:16:1d:81:f5:cb:8e:5a:68:
                    19:13:fc:f3:72:43:e5:e3:9f:a3:5c:97:38:42:86:
                    38:60:e7:c0:c4:31:1e:09:80:89:a0:e5:43:c5:4b:
                    fa:c0:66:de:6e:8b:2a:ba:7d:c1:85:60:a8:80:99:
                    ae:fe:6d:55:9c:b3:40:22:93:c7:fc:be:d9:64:44:
                    5f:a1:3c:0c:72:ad:ef:5d:2f:76:18:68:e2:23:77:
                    5c:74:93:7e:48:a3:27:e0:ea:4c:e6:2e:3a:b1:7e:
                    0e:a4:c3:fe:fa:c0:48:d2:d1:cd:15:88:e1:ca:e5:
                    51:4d:32:6e:7d:c0:5b:d3:19:99:89:53:4c:bc:2a:
                    85:39:87:25:65:1f:89:17:01:4b:66:d3:bb:56:ab:
                    84:d1:6c:35:3d:c6:da:e3:ae:d6:88:50:51:b2:72:
                    46:34:65:6c:34:4a:7a:5d:e9:15:81:61:f5:f4:c3:
                    ac:0b:05:64:87:50:85:b0:48:5d:c7:13:94:c6:f1:
                    ef:b6:56:55:ae:05:cb:c5:f2:85:93:cd:22:96:99:
                    ad:12:4c:de:f1:b9:52:b7:ac:2e:4e:2e:56:35:ac:
                    79:fb:16:73:3c:5c:b7:cd:e0:60:30:54:ed:70:e0:
                    bf:1b:04:af:5c:80:c3:01:a0:c8:40:71:6f:d3:c3:
                    c3:2d:d5:74:a6:6a:88:b3:c3:66:70:24:11:df:f9:
                    5f:c6:c5
                Exponent: 65537 (0x10001)
        X509v3 extensions:
            X509v3 Basic Constraints: critical
                CA:TRUE
            X509v3 Key Usage: critical
                Certificate Sign, CRL Sign
            X509v3 Subject Key Identifier: 
                D3:F0:4D:56:3A:E6:A0:3F:17:5B:F3:55:5D:EA:31:4C:89:03:E7:D6
            X509v3 Authority Key Identifier: 
                keyid:D3:F0:4D:56:3A:E6:A0:3F:17:5B:F3:55:5D:EA:31:4C:89:03:E7:D6

            X509v3 Certificate Policies: 
                Policy: X509v3 Any Policy
                  User Notice:
                    Explicit Text: UTF8:This is a dummy Root CA for testing purposes

    Signature Algorithm: sha512WithRSAEncryption
         41:d6:b9:9e:f5:65:cd:06:75:56:d0:03:53:4a:3c:36:bd:ad:
         59:24:0e:6a:11:76:4e:99:c3:1e:0a:67:cd:9c:e4:32:3a:15:
         e4:08:be:57:50:0d:b4:ec:19:97:f5:27:fe:f8:74:9e:d9:e3:
         91:86:5e:97:a9:2a:47:ff:78:a0:c2:a7:a5:f6:bd:27:05:1b:
         83:87:6b:5a:e3:a8:2c:6d:25:3b:6d:66:59:2c:b0:99:b6:f0:
         25:b2:30:0d:ad:05:46:2f:43:ff:9c:a3:ad:f2:05:07:4e:82:
         76:39:9b:cc:9a:9d:35:e3:7c:71:c0:fc:fe:6e:dc:51:ea:c9:
         2a:e0:a5:c5:92:e6:b7:20:14:e7:bf:f4:c0:f8:c7:58:4c:6e:
         e4:53:03:cb:a9:ce:bd:ce:45:55:92:91:77:91:f2:5c:58:da:
         5e:11:19:e1:44:62:b1:71:77:bb:81:04:a5:c9:02:8c:12:28:
         50:a8:2e:fb:bc:39:88:a5:a8:f9:fb:98:40:11:43:ff:f4:dd:
         4e:de:22:7d:7c:b5:ab:5e:08:fe:0a:2c:bd:b3:fd:bf:26:ad:
         74:e2:41:a7:57:78:c4:67:7c:3d:98:3e:15:70:af:70:4d:9b:
         b1:f6:f4:ef:2e:d4:94:00:d8:2e:54:78:13:b3:97:76:c2:b1:
         44:c6:4e:5a:ec:aa:19:a2:44:45:e4:14:a4:13:65:c8:c9:98:
         57:ab:95:84:cf:e0:ad:86:77:f5:7c:b4:3d:8c:df:c9:78:17:
         95:42:8f:e8:15:29:c6:28:50:58:06:02:14:89:80:e1:c2:ec:
         04:49:9f:fe:82:ba:aa:27:09:29:03:ab:6d:f6:4e:34:6a:e3:
         f5:f4:1c:4b:30:7f:93:18:c0:75:53:0c:2e:af:a1:b7:90:11:
         77:dd:92:78:e4:ed:00:96:66:14:7f:1f:17:e5:c8:3f:45:8d:
         c8:65:b7:e5:b6:18:70:f0:50:c7:87:ad:b3:83:81:1e:69:91:
         62:76:a1:c5:e8:79:fe:04:48:9b:5f:29:fc:a5:ca:06:cd:9b:
         df:3c:f1:19:c3:d6:11:c7:0c:34:07:2d:a2:fb:b4:72:81:27:
         9e:e4:e1:7f:07:27:2a:9e:a3:bf:95:2e:a1:33:11:c1:30:99:
         ae:a7:5f:c6:92:aa:41:cf:1f:77:76:68:89:ed:16:50:3f:d9:
         0a:26:03:8b:5b:4c:27:4b:9d:19:d6:46:60:93:70:f3:c8:f7:
         e5:32:f6:8d:25:5c:ab:2b:d6:e4:38:53:cd:83:0c:89:d3:e9:
         80:38:ff:d5:fe:5e:58:4c:fe:8c:ae:74:ff:0d:13:bd:59:d9:
         a1:f1:af:5e:e4:20:da:d1
-----BEGIN CERTIFICATE-----
MIIFkDCCA3igAwIBAgIVAP15kVt62m8a4p52xmbCcNCiSx8pMA0GCSqGSIb3DQEB
DQUAMCMxITAfBgNVBAMMGENaRVJUQUlOTFkgRHVtbXkgUm9vdCBDQTAeFw0yMjA4
MDQwNzUxNTFaFw00NzA3MjkwNzUxNTFaMCMxITAfBgNVBAMMGENaRVJUQUlOTFkg
RHVtbXkgUm9vdCBDQTCCAiIwDQYJKoZIhvcNAQEBBQADggIPADCCAgoCggIBAL/0
bReUZnIoe4KBREDC8wf/veaEg6zu8QcxRdBdkU9z19cMkBQN9tZhuqPUzRJnEEBM
jwjDWfmhqEF05l+NrDZvIy+C1qDR4MUDoanirPFL4HzyLzmwFMJcFE6kf948ZJm8
B6GdzVBo/CaLaajGj5om0/Wq3I/qYlqgO9P2+CFR4BD7+bs3xqyteRcOI60K7anw
Jz2OTtVRLdvmPAStkJyXRTkFLB0GYpEckgvgkOANLsqwa1R7l7pFYWodtlW3ToqX
wyVgvT+Dlt12oBvsLdbKuTHYH6uS1dC7Q6GDi5ph9gp4PiQHNXzzlypjy4isjKum
1PQmBBYdgfXLjlpoGRP883JD5eOfo1yXOEKGOGDnwMQxHgmAiaDlQ8VL+sBm3m6L
Krp9wYVgqICZrv5tVZyzQCKTx/y+2WREX6E8DHKt710vdhho4iN3XHSTfkijJ+Dq
TOYuOrF+DqTD/vrASNLRzRWI4crlUU0ybn3AW9MZmYlTTLwqhTmHJWUfiRcBS2bT
u1arhNFsNT3G2uOu1ohQUbJyRjRlbDRKel3pFYFh9fTDrAsFZIdQhbBIXccTlMbx
77ZWVa4Fy8XyhZPNIpaZrRJM3vG5UresLk4uVjWsefsWczxct83gYDBU7XDgvxsE
r1yAwwGgyEBxb9PDwy3VdKZqiLPDZnAkEd/5X8bFAgMBAAGjgbowgbcwDwYDVR0T
AQH/BAUwAwEB/zAOBgNVHQ8BAf8EBAMCAQYwHQYDVR0OBBYEFNPwTVY65qA/F1vz
VV3qMUyJA+fWMB8GA1UdIwQYMBaAFNPwTVY65qA/F1vzVV3qMUyJA+fWMFQGA1Ud
IARNMEswSQYEVR0gADBBMD8GCCsGAQUFBwICMDMaMVVURjg6VGhpcyBpcyBhIGR1
bW15IFJvb3QgQ0EgZm9yIHRlc3RpbmcgcHVycG9zZXMwDQYJKoZIhvcNAQENBQAD
ggIBAEHWuZ71Zc0GdVbQA1NKPDa9rVkkDmoRdk6Zwx4KZ82c5DI6FeQIvldQDbTs
GZf1J/74dJ7Z45GGXpepKkf/eKDCp6X2vScFG4OHa1rjqCxtJTttZlkssJm28CWy
MA2tBUYvQ/+co63yBQdOgnY5m8yanTXjfHHA/P5u3FHqySrgpcWS5rcgFOe/9MD4
x1hMbuRTA8upzr3ORVWSkXeR8lxY2l4RGeFEYrFxd7uBBKXJAowSKFCoLvu8OYil
qPn7mEARQ//03U7eIn18tateCP4KLL2z/b8mrXTiQadXeMRnfD2YPhVwr3BNm7H2
9O8u1JQA2C5UeBOzl3bCsUTGTlrsqhmiREXkFKQTZcjJmFerlYTP4K2Gd/V8tD2M
38l4F5VCj+gVKcYoUFgGAhSJgOHC7ARJn/6CuqonCSkDq232TjRq4/X0HEswf5MY
wHVTDC6vobeQEXfdknjk7QCWZhR/HxflyD9Fjchlt+W2GHDwUMeHrbODgR5pkWJ2
ocXoef4ESJtfKfylygbNm9888RnD1hHHDDQHLaL7tHKBJ57k4X8HJyqeo7+VLqEz
EcEwma6nX8aSqkHPH3d2aIntFlA/2QomA4tbTCdLnRnWRmCTcPPI9+Uy9o0lXKsr
1uQ4U82DDInT6YA4/9X+XlhM/oyudP8NE71Z2aHxr17kINrR
-----END CERTIFICATE-----
